target datalayout = "e-m:e-p270:32:32-p271:32:32-p272:64:64-i64:64-i128:128-f80:128-n8:16:32:64-S128"
target triple = "x86_64-pc-linux-gnu"

; Function Attrs: mustprogress uwtable
define noundef zeroext i1 @_ZN4dmlc2io23IndexedRecordIOSplitter9ReadChunkEPvPm(ptr noundef nonnull align 8 dereferenceable(5304) %0, ptr noundef %1, ptr noundef %2) unnamed_addr #4 align 2 {
  %4 = alloca i1, align 1
  %5 = alloca ptr, align 8
  %6 = alloca ptr, align 8
  %7 = alloca ptr, align 8
  %8 = alloca i64, align 8
  %9 = alloca i64, align 8
  %10 = alloca i32, align 4
  store ptr %0, ptr %5, align 8, !tbaa !3
  store ptr %1, ptr %6, align 8, !tbaa !127
  store ptr %2, ptr %7, align 8, !tbaa !65
  %11 = load ptr, ptr %5, align 8
  call void @llvm.lifetime.start.p0(i64 8, ptr %8) #3
  %12 = load ptr, ptr %7, align 8, !tbaa !65
  %13 = load i64, ptr %12, align 8, !tbaa !10
  store i64 %13, ptr %8, align 8, !tbaa !10
  call void @llvm.lifetime.start.p0(i64 8, ptr %9) #3
  %14 = load ptr, ptr %6, align 8, !tbaa !127
  %15 = load i64, ptr %8, align 8, !tbaa !10
  %16 = call noundef i64 @_ZN4dmlc2io14InputSplitBase4ReadEPvm(ptr noundef nonnull align 8 dereferenceable(200) %11, ptr noundef %14, i64 noundef %15)
  store i64 %16, ptr %9, align 8, !tbaa !10
  %17 = load i64, ptr %9, align 8, !tbaa !10
  %18 = icmp eq i64 %17, 0
  br i1 %18, label %19, label %20

19:                                               ; preds = %3
  store i1 false, ptr %4, align 1
  store i32 1, ptr %10, align 4
  br label %28

20:                                               ; preds = %3
  %21 = load i64, ptr %9, align 8, !tbaa !10
  %22 = load i64, ptr %8, align 8, !tbaa !10
  %23 = icmp ne i64 %21, %22
  br i1 %23, label %24, label %27

24:                                               ; preds = %20
  %25 = load i64, ptr %9, align 8, !tbaa !10
  %26 = load ptr, ptr %7, align 8, !tbaa !65
  store i64 %25, ptr %26, align 8, !tbaa !10
  br label %27

27:                                               ; preds = %24, %20
  store i1 true, ptr %4, align 1
  store i32 1, ptr %10, align 4
  br label %28

28:                                               ; preds = %27, %19
  call void @llvm.lifetime.end.p0(i64 8, ptr %9) #3
  call void @llvm.lifetime.end.p0(i64 8, ptr %8) #3
  %29 = load i1, ptr %4, align 1
  ret i1 %29
}