; Function Attrs: mustprogress uwtable
define noundef zeroext i1 @_ZN4dmlc2io23IndexedRecordIOSplitter9ReadChunkEPvPm(ptr noundef nonnull align 8 dereferenceable(5304) %0, ptr noundef %1, ptr noundef captures(none) %2) unnamed_addr #3 align 2 {
  %4 = load i64, ptr %2, align 8, !tbaa !12
  %5 = tail call noundef i64 @_ZN4dmlc2io14InputSplitBase4ReadEPvm(ptr noundef nonnull align 8 dereferenceable(200) %0, ptr noundef %1, i64 noundef %4)
  %6 = icmp ne i64 %5, 0
  %.not = icmp ne i64 %5, %4
  %or.cond.not = and i1 %.not, %6
  br i1 %or.cond.not, label %7, label %8

7:                                                ; preds = %3
  store i64 %5, ptr %2, align 8, !tbaa !12
  br label %8

8:                                                ; preds = %7, %3
  ret i1 %6
}